; Function Attrs: null_pointer_is_valid sspstrong uwtable
define internal i32 @dissect_xnap_PLMN_Identity(ptr noundef %0, i32 noundef %1, ptr noundef %2, ptr noundef %3, i32 noundef %4) #0 {
  %6 = alloca ptr, align 8
  call void @llvm.lifetime.start.p0(i64 8, ptr nonnull %6) #9
  store ptr null, ptr %6, align 8
  %7 = getelementptr inbounds nuw i8, ptr %2, i64 16
  %8 = load ptr, ptr %7, align 8
  %9 = getelementptr inbounds nuw i8, ptr %8, i64 408
  %10 = load ptr, ptr %9, align 8
  %11 = load i32, ptr @proto_xnap, align 4
  %12 = tail call ptr @p_get_proto_data(ptr noundef %10, ptr noundef %8, i32 noundef %11, i32 noundef 0)
  %.not.i = icmp eq ptr %12, null
  br i1 %.not.i, label %13, label %xnap_get_private_data.exit

13:                                               ; preds = %5
  %14 = load ptr, ptr %9, align 8
  %15 = tail call noalias dereferenceable_or_null(24) ptr @wmem_alloc0(ptr noundef %14, i64 noundef 24) #10
  %16 = load ptr, ptr %9, align 8
  %17 = load i32, ptr @proto_xnap, align 4
  tail call void @p_add_proto_data(ptr noundef %16, ptr noundef %8, i32 noundef %17, i32 noundef 0, ptr noundef %15)
  br label %xnap_get_private_data.exit

xnap_get_private_data.exit:                       ; preds = %5, %13
  %.0.i = phi ptr [ %12, %5 ], [ %15, %13 ]
  %18 = getelementptr inbounds nuw i8, ptr %.0.i, i64 20
  %19 = load i32, ptr %18, align 4
  store i32 0, ptr %18, align 4
  %20 = call i32 @dissect_per_octet_string(ptr noundef %0, i32 noundef %1, ptr noundef %2, ptr noundef %3, i32 noundef %4, i32 noundef 3, i32 noundef 3, i1 noundef zeroext false, ptr noundef nonnull %6)
  %21 = load ptr, ptr %6, align 8
  %.not = icmp eq ptr %21, null
  br i1 %.not, label %30, label %22

22:                                               ; preds = %xnap_get_private_data.exit
  %23 = getelementptr inbounds nuw i8, ptr %2, i64 24
  %24 = load ptr, ptr %23, align 8
  %25 = load i32, ptr @ett_xnap_PLMN_Identity, align 4
  %26 = call ptr @proto_item_add_subtree(ptr noundef %24, i32 noundef %25)
  %27 = load ptr, ptr %6, align 8
  %28 = load ptr, ptr %7, align 8
  %29 = call i32 @dissect_e212_mcc_mnc(ptr noundef %27, ptr noundef %28, ptr noundef %26, i32 noundef 0, i32 noundef %19, i1 noundef zeroext false)
  br label %30

30:                                               ; preds = %xnap_get_private_data.exit, %22
  call void @llvm.lifetime.end.p0(i64 8, ptr nonnull %6) #9
  ret i32 %20
}